; Function Attrs: mustprogress uwtable
define internal fastcc void @_ZNK12_GLOBAL__N_112cmQtAutoRccT17MultiConfigOutputB5cxx11Ev(ptr dead_on_unwind noalias writable align 8 %0, ptr noundef nonnull align 8 dereferenceable(954) %1) unnamed_addr #3 align 2 personality ptr @__gxx_personality_v0 {
  %3 = alloca [3 x %"struct.std::pair"], align 8
  %4 = alloca %class.cmAlphaNum, align 8
  %5 = alloca %"class.std::__cxx11::basic_string", align 8
  %6 = getelementptr inbounds i8, ptr %1, i64 672
  %7 = getelementptr inbounds i8, ptr %1, i64 704
  %8 = tail call { i64, ptr } @_ZNKSt7__cxx1112basic_stringIcSt11char_traitsIcESaIcEEcvSt17basic_string_viewIcS2_EEv(ptr noundef nonnull align 8 dereferenceable(32) %7) #16
  %9 = extractvalue { i64, ptr } %8, 0
  %10 = extractvalue { i64, ptr } %8, 1
  call void @_ZN11cmQtAutoGen20AppendFilenameSuffixB5cxx11ESt17basic_string_viewIcSt11char_traitsIcEES3_(ptr dead_on_unwind nonnull writable sret(%"class.std::__cxx11::basic_string") align 8 %5, i64 %9, ptr %10, i64 7, ptr nonnull @.str.21)
  call void @llvm.lifetime.start.p0(i64 72, ptr nonnull %3)
  call void @llvm.lifetime.start.p0(i64 56, ptr nonnull %4)
  %11 = call { i64, ptr } @_ZNKSt7__cxx1112basic_stringIcSt11char_traitsIcESaIcEEcvSt17basic_string_viewIcS2_EEv(ptr noundef nonnull align 8 dereferenceable(32) %6) #16, !noalias !435
  %12 = extractvalue { i64, ptr } %11, 0
  %13 = extractvalue { i64, ptr } %11, 1
  store i64 %12, ptr %3, align 8, !alias.scope !438, !noalias !435
  %.sroa.2.0..sroa_idx.i.i = getelementptr inbounds i8, ptr %3, i64 8
  store ptr %13, ptr %.sroa.2.0..sroa_idx.i.i, align 8, !alias.scope !438, !noalias !435
  %14 = getelementptr inbounds i8, ptr %3, i64 16
  store ptr null, ptr %14, align 8, !alias.scope !438, !noalias !435
  %15 = getelementptr inbounds i8, ptr %3, i64 24
  store ptr null, ptr %4, align 8, !noalias !435
  %16 = getelementptr inbounds i8, ptr %4, i64 8
  %17 = getelementptr inbounds i8, ptr %4, i64 24
  store i64 1, ptr %16, align 8, !noalias !435
  %18 = getelementptr inbounds i8, ptr %4, i64 16
  store ptr %17, ptr %18, align 8, !noalias !435
  store i8 47, ptr %17, align 8, !noalias !435
  store i64 1, ptr %15, align 8, !alias.scope !441, !noalias !435
  %.sroa.2.0..sroa_idx.i7.i = getelementptr inbounds i8, ptr %3, i64 32
  store ptr %17, ptr %.sroa.2.0..sroa_idx.i7.i, align 8, !alias.scope !441, !noalias !435
  %19 = getelementptr inbounds i8, ptr %3, i64 40
  store ptr null, ptr %19, align 8, !alias.scope !441, !noalias !435
  %20 = getelementptr inbounds i8, ptr %3, i64 48
  call void @llvm.experimental.noalias.scope.decl(metadata !444)
  %21 = call { i64, ptr } @_ZNKSt7__cxx1112basic_stringIcSt11char_traitsIcESaIcEEcvSt17basic_string_viewIcS2_EEv(ptr noundef nonnull align 8 dereferenceable(32) %5) #16, !noalias !447
  %22 = extractvalue { i64, ptr } %21, 0
  %23 = extractvalue { i64, ptr } %21, 1
  store i64 %22, ptr %20, align 8, !alias.scope !444, !noalias !435
  %.sroa.2.0..sroa_idx.i16.i = getelementptr inbounds i8, ptr %3, i64 56
  store ptr %23, ptr %.sroa.2.0..sroa_idx.i16.i, align 8, !alias.scope !444, !noalias !435
  %24 = getelementptr inbounds i8, ptr %3, i64 64
  store ptr %5, ptr %24, align 8, !alias.scope !444, !noalias !435
  invoke void @_Z10cmCatViewsSt16initializer_listISt4pairISt17basic_string_viewIcSt11char_traitsIcEEPNSt7__cxx1112basic_stringIcS3_SaIcEEEEE(ptr dead_on_unwind writable sret(%"class.std::__cxx11::basic_string") align 8 %0, ptr nonnull %3, i64 3)
          to label %25 unwind label %26

25:                                               ; preds = %2
  call void @llvm.lifetime.end.p0(i64 72, ptr nonnull %3)
  call void @llvm.lifetime.end.p0(i64 56, ptr nonnull %4)
  call void @_ZNSt7__cxx1112basic_stringIcSt11char_traitsIcESaIcEED1Ev(ptr noundef nonnull align 8 dereferenceable(32) %5) #16
  ret void

26:                                               ; preds = %2
  %27 = landingpad { ptr, i32 }
          cleanup
  call void @_ZNSt7__cxx1112basic_stringIcSt11char_traitsIcESaIcEED1Ev(ptr noundef nonnull align 8 dereferenceable(32) %5) #16
  resume { ptr, i32 } %27
}